target datalayout = "e-m:e-p270:32:32-p271:32:32-p272:64:64-i64:64-i128:128-f80:128-n8:16:32:64-S128"
target triple = "x86_64-pc-linux-gnu"

%struct.UserDefinedPropertyValue = type { i32, ptr }

@UserDefinedPropertyNum = internal global i32 0, align 4
@UserDefinedPropertyTable = internal global ptr null, align 8
@UserDefinedPropertyRanges = internal global [20 x %struct.UserDefinedPropertyValue] zeroinitializer, align 16

; Function Attrs: nounwind uwtable
define dso_local i32 @onig_unicode_define_user_property(ptr noundef %0, ptr noundef %1) #0 {
  %3 = alloca i32, align 4
  %4 = alloca ptr, align 8
  %5 = alloca ptr, align 8
  %6 = alloca ptr, align 8
  %7 = alloca i32, align 4
  %8 = alloca i32, align 4
  %9 = alloca i32, align 4
  %10 = alloca i32, align 4
  %11 = alloca i32, align 4
  %12 = alloca ptr, align 8
  %13 = alloca ptr, align 8
  %14 = alloca i32, align 4
  store ptr %0, ptr %4, align 8, !tbaa !13
  store ptr %1, ptr %5, align 8, !tbaa !25
  call void @llvm.lifetime.start.p0(i64 8, ptr %6) #7
  call void @llvm.lifetime.start.p0(i64 4, ptr %7) #7
  call void @llvm.lifetime.start.p0(i64 4, ptr %8) #7
  call void @llvm.lifetime.start.p0(i64 4, ptr %9) #7
  call void @llvm.lifetime.start.p0(i64 4, ptr %10) #7
  call void @llvm.lifetime.start.p0(i64 4, ptr %11) #7
  call void @llvm.lifetime.start.p0(i64 8, ptr %12) #7
  call void @llvm.lifetime.start.p0(i64 8, ptr %13) #7
  %15 = load i32, ptr @UserDefinedPropertyNum, align 4, !tbaa !9
  %16 = icmp sge i32 %15, 20
  br i1 %16, label %17, label %18

17:                                               ; preds = %2
  store i32 -404, ptr %3, align 4
  store i32 1, ptr %14, align 4
  br label %116

18:                                               ; preds = %2
  %19 = load ptr, ptr %4, align 8, !tbaa !13
  %20 = call i64 @strlen(ptr noundef %19) #8
  %21 = trunc i64 %20 to i32
  store i32 %21, ptr %10, align 4, !tbaa !9
  %22 = load i32, ptr %10, align 4, !tbaa !9
  %23 = icmp sge i32 %22, 61
  br i1 %23, label %24, label %25

24:                                               ; preds = %18
  store i32 -405, ptr %3, align 4
  store i32 1, ptr %14, align 4
  br label %116

25:                                               ; preds = %18
  %26 = load i32, ptr %10, align 4, !tbaa !9
  %27 = add nsw i32 %26, 1
  %28 = sext i32 %27 to i64
  %29 = call noalias ptr @malloc(i64 noundef %28) #9
  store ptr %29, ptr %12, align 8, !tbaa !13
  %30 = load ptr, ptr %12, align 8, !tbaa !13
  %31 = icmp eq ptr %30, null
  br i1 %31, label %32, label %33

32:                                               ; preds = %25
  store i32 -5, ptr %3, align 4
  store i32 1, ptr %14, align 4
  br label %116

33:                                               ; preds = %25
  %34 = load ptr, ptr %4, align 8, !tbaa !13
  store ptr %34, ptr %13, align 8, !tbaa !13
  store i32 0, ptr %9, align 4, !tbaa !9
  store i32 0, ptr %8, align 4, !tbaa !9
  br label %35

35:                                               ; preds = %72, %33
  %36 = load i32, ptr %8, align 4, !tbaa !9
  %37 = load i32, ptr %10, align 4, !tbaa !9
  %38 = icmp slt i32 %36, %37
  br i1 %38, label %39, label %75

39:                                               ; preds = %35
  %40 = load ptr, ptr %13, align 8, !tbaa !13
  %41 = load i32, ptr %8, align 4, !tbaa !9
  %42 = sext i32 %41 to i64
  %43 = getelementptr inbounds i8, ptr %40, i64 %42
  %44 = load i8, ptr %43, align 1, !tbaa !29
  %45 = zext i8 %44 to i32
  store i32 %45, ptr %11, align 4, !tbaa !9
  %46 = load i32, ptr %11, align 4, !tbaa !9
  %47 = icmp slt i32 %46, 32
  br i1 %47, label %51, label %48

48:                                               ; preds = %39
  %49 = load i32, ptr %11, align 4, !tbaa !9
  %50 = icmp sge i32 %49, 128
  br i1 %50, label %51, label %53

51:                                               ; preds = %48, %39
  %52 = load ptr, ptr %12, align 8, !tbaa !13
  call void @free(ptr noundef %52) #7
  store i32 -223, ptr %3, align 4
  store i32 1, ptr %14, align 4
  br label %116

53:                                               ; preds = %48
  %54 = load i32, ptr %11, align 4, !tbaa !9
  %55 = icmp ne i32 %54, 32
  br i1 %55, label %56, label %71

56:                                               ; preds = %53
  %57 = load i32, ptr %11, align 4, !tbaa !9
  %58 = icmp ne i32 %57, 45
  br i1 %58, label %59, label %71

59:                                               ; preds = %56
  %60 = load i32, ptr %11, align 4, !tbaa !9
  %61 = icmp ne i32 %60, 95
  br i1 %61, label %62, label %71

62:                                               ; preds = %59
  %63 = load i32, ptr %11, align 4, !tbaa !9
  %64 = trunc i32 %63 to i8
  %65 = load ptr, ptr %12, align 8, !tbaa !13
  %66 = load i32, ptr %9, align 4, !tbaa !9
  %67 = sext i32 %66 to i64
  %68 = getelementptr inbounds i8, ptr %65, i64 %67
  store i8 %64, ptr %68, align 1, !tbaa !29
  %69 = load i32, ptr %9, align 4, !tbaa !9
  %70 = add nsw i32 %69, 1
  store i32 %70, ptr %9, align 4, !tbaa !9
  br label %71

71:                                               ; preds = %62, %59, %56, %53
  br label %72

72:                                               ; preds = %71
  %73 = load i32, ptr %8, align 4, !tbaa !9
  %74 = add nsw i32 %73, 1
  store i32 %74, ptr %8, align 4, !tbaa !9
  br label %35, !llvm.loop !85

75:                                               ; preds = %35
  %76 = load ptr, ptr %12, align 8, !tbaa !13
  %77 = load i32, ptr %9, align 4, !tbaa !9
  %78 = sext i32 %77 to i64
  %79 = getelementptr inbounds i8, ptr %76, i64 %78
  store i8 0, ptr %79, align 1, !tbaa !29
  %80 = load ptr, ptr @UserDefinedPropertyTable, align 8, !tbaa !86
  %81 = icmp eq ptr %80, null
  br i1 %81, label %82, label %89

82:                                               ; preds = %75
  %83 = call ptr @onig_st_init_strend_table_with_size(i32 noundef 10)
  store ptr %83, ptr @UserDefinedPropertyTable, align 8, !tbaa !86
  %84 = load ptr, ptr @UserDefinedPropertyTable, align 8, !tbaa !86
  %85 = icmp eq ptr %84, null
  br i1 %85, label %86, label %88

86:                                               ; preds = %82
  %87 = load ptr, ptr %12, align 8, !tbaa !13
  call void @free(ptr noundef %87) #7
  store i32 -5, ptr %3, align 4
  store i32 1, ptr %14, align 4
  br label %116

88:                                               ; preds = %82
  br label %89

89:                                               ; preds = %88, %75
  %90 = load i32, ptr @UserDefinedPropertyNum, align 4, !tbaa !9
  %91 = sext i32 %90 to i64
  %92 = getelementptr inbounds %struct.UserDefinedPropertyValue, ptr @UserDefinedPropertyRanges, i64 %91
  store ptr %92, ptr %6, align 8, !tbaa !31
  %93 = load i32, ptr @UserDefinedPropertyNum, align 4, !tbaa !9
  %94 = add nsw i32 606, %93
  %95 = load ptr, ptr %6, align 8, !tbaa !31
  %96 = getelementptr inbounds nuw %struct.UserDefinedPropertyValue, ptr %95, i32 0, i32 0
  store i32 %94, ptr %96, align 8, !tbaa !88
  %97 = load ptr, ptr %5, align 8, !tbaa !25
  %98 = load ptr, ptr %6, align 8, !tbaa !31
  %99 = getelementptr inbounds nuw %struct.UserDefinedPropertyValue, ptr %98, i32 0, i32 1
  store ptr %97, ptr %99, align 8, !tbaa !79
  %100 = load ptr, ptr @UserDefinedPropertyTable, align 8, !tbaa !86
  %101 = load ptr, ptr %12, align 8, !tbaa !13
  %102 = load ptr, ptr %12, align 8, !tbaa !13
  %103 = load i32, ptr %9, align 4, !tbaa !9
  %104 = sext i32 %103 to i64
  %105 = getelementptr inbounds i8, ptr %102, i64 %104
  %106 = load ptr, ptr %6, align 8, !tbaa !31
  %107 = ptrtoint ptr %106 to i64
  %108 = call i32 @onig_st_insert_strend(ptr noundef %100, ptr noundef %101, ptr noundef %105, i64 noundef %107)
  store i32 %108, ptr %7, align 4, !tbaa !9
  %109 = load i32, ptr %7, align 4, !tbaa !9
  %110 = icmp slt i32 %109, 0
  br i1 %110, label %111, label %113

111:                                              ; preds = %89
  %112 = load i32, ptr %7, align 4, !tbaa !9
  store i32 %112, ptr %3, align 4
  store i32 1, ptr %14, align 4
  br label %116

113:                                              ; preds = %89
  %114 = load i32, ptr @UserDefinedPropertyNum, align 4, !tbaa !9
  %115 = add nsw i32 %114, 1
  store i32 %115, ptr @UserDefinedPropertyNum, align 4, !tbaa !9
  store i32 0, ptr %3, align 4
  store i32 1, ptr %14, align 4
  br label %116

116:                                              ; preds = %113, %111, %86, %51, %32, %24, %17
  call void @llvm.lifetime.end.p0(i64 8, ptr %13) #7
  call void @llvm.lifetime.end.p0(i64 8, ptr %12) #7
  call void @llvm.lifetime.end.p0(i64 4, ptr %11) #7
  call void @llvm.lifetime.end.p0(i64 4, ptr %10) #7
  call void @llvm.lifetime.end.p0(i64 4, ptr %9) #7
  call void @llvm.lifetime.end.p0(i64 4, ptr %8) #7
  call void @llvm.lifetime.end.p0(i64 4, ptr %7) #7
  call void @llvm.lifetime.end.p0(i64 8, ptr %6) #7
  %117 = load i32, ptr %3, align 4
  ret i32 %117
}